target datalayout = "e-m:e-p270:32:32-p271:32:32-p272:64:64-i64:64-i128:128-f80:128-n8:16:32:64-S128"
target triple = "x86_64-pc-linux-gnu"

%struct.H5ES_event_t = type { ptr, ptr, ptr, %struct.H5ES_op_info_t }
%struct.H5ES_op_info_t = type { ptr, ptr, ptr, ptr, i32, i64, i64, i64, i64 }

@H5ES_init_g = external global i8, align 1
@H5_libterm_g = external global i8, align 1
@.str = private unnamed_addr constant [103 x i8] c"generated/home/dtcxzyw/WorkSpace/Projects/compilers/llvm-opt-benchmark/bench/hdf5/hdf5/src/H5ESevent.c\00", align 1
@__func__.H5ES__event_new = private unnamed_addr constant [16 x i8] c"H5ES__event_new\00", align 1
@H5E_EVENTSET_g = external global i64, align 8
@H5E_CANTFREE_g = external global i64, align 8
@.str.1 = private unnamed_addr constant [19 x i8] c"can't free request\00", align 1
@H5E_CANTINIT_g = external global i64, align 8
@.str.2 = private unnamed_addr constant [42 x i8] c"can't create vol object for request token\00", align 1
@H5E_CANTALLOC_g = external global i64, align 8
@.str.3 = private unnamed_addr constant [28 x i8] c"can't allocate event object\00", align 1
@H5_H5ES_event_t_reg_free_list = internal global { i8, [3 x i8], i32, i32, [4 x i8], ptr, i64, ptr } { i8 0, [3 x i8] zeroinitializer, i32 0, i32 0, [4 x i8] zeroinitializer, ptr @.str.7, i64 96, ptr null }, align 8

; Function Attrs: nounwind uwtable
define ptr @H5ES__event_new(ptr noundef %0, ptr noundef %1) #0 {
  %3 = alloca ptr, align 8
  %4 = alloca ptr, align 8
  %5 = alloca ptr, align 8
  %6 = alloca ptr, align 8
  %7 = alloca ptr, align 8
  %8 = alloca i8, align 1
  store ptr %0, ptr %3, align 8, !tbaa !3
  store ptr %1, ptr %4, align 8, !tbaa !8
  call void @llvm.lifetime.start.p0(i64 8, ptr %5) #4
  store ptr null, ptr %5, align 8, !tbaa !9
  call void @llvm.lifetime.start.p0(i64 8, ptr %6) #4
  store ptr null, ptr %6, align 8, !tbaa !11
  call void @llvm.lifetime.start.p0(i64 8, ptr %7) #4
  store ptr null, ptr %7, align 8, !tbaa !9
  call void @llvm.lifetime.start.p0(i64 1, ptr %8) #4
  store i8 0, ptr %8, align 1, !tbaa !13
  %9 = load i8, ptr @H5ES_init_g, align 1, !tbaa !13, !range !15, !noundef !16
  %10 = trunc i8 %9 to i1
  br i1 %10, label %15, label %11

11:                                               ; preds = %2
  %12 = load i8, ptr @H5_libterm_g, align 1, !tbaa !13, !range !15, !noundef !16
  %13 = trunc i8 %12 to i1
  %14 = xor i1 %13, true
  br label %15

15:                                               ; preds = %11, %2
  %16 = phi i1 [ true, %2 ], [ %14, %11 ]
  %17 = xor i1 %16, true
  %18 = xor i1 %17, true
  %19 = zext i1 %18 to i32
  %20 = sext i32 %19 to i64
  %21 = call i64 @llvm.expect.i64(i64 %20, i64 1)
  %22 = icmp ne i64 %21, 0
  br i1 %22, label %23, label %95

23:                                               ; preds = %15
  %24 = load ptr, ptr %4, align 8, !tbaa !8
  %25 = load ptr, ptr %3, align 8, !tbaa !3
  %26 = call ptr @H5VL_create_object(ptr noundef %24, ptr noundef %25)
  store ptr %26, ptr %6, align 8, !tbaa !11
  %27 = icmp eq ptr null, %26
  br i1 %27, label %28, label %67

28:                                               ; preds = %23
  %29 = load ptr, ptr %4, align 8, !tbaa !8
  %30 = call i32 @H5VL_request_free(ptr noundef %29)
  %31 = icmp slt i32 %30, 0
  br i1 %31, label %32, label %48

32:                                               ; preds = %28
  br label %33

33:                                               ; preds = %32
  br label %34

34:                                               ; preds = %33
  br label %35

35:                                               ; preds = %34
  %36 = load i64, ptr @H5E_EVENTSET_g, align 8, !tbaa !17
  %37 = load i64, ptr @H5E_CANTFREE_g, align 8, !tbaa !17
  %38 = call i32 (ptr, ptr, i32, i64, i64, ptr, ...) @H5E_printf_stack(ptr noundef @.str, ptr noundef @__func__.H5ES__event_new, i32 noundef 97, i64 noundef %36, i64 noundef %37, ptr noundef @.str.1)
  br label %39

39:                                               ; preds = %35
  br label %40

40:                                               ; preds = %39
  store i8 1, ptr %8, align 1, !tbaa !13
  %41 = load i8, ptr %8, align 1, !tbaa !13, !range !15, !noundef !16
  %42 = trunc i8 %41 to i1
  %43 = zext i1 %42 to i8
  store i8 %43, ptr %8, align 1, !tbaa !13
  br label %44

44:                                               ; preds = %40
  br label %45

45:                                               ; preds = %44
  store ptr null, ptr %7, align 8, !tbaa !9
  br label %46

46:                                               ; preds = %45
  br label %47

47:                                               ; preds = %46
  br label %48

48:                                               ; preds = %47, %28
  br label %49

49:                                               ; preds = %48
  br label %50

50:                                               ; preds = %49
  br label %51

51:                                               ; preds = %50
  %52 = load i64, ptr @H5E_EVENTSET_g, align 8, !tbaa !17
  %53 = load i64, ptr @H5E_CANTINIT_g, align 8, !tbaa !17
  %54 = call i32 (ptr, ptr, i32, i64, i64, ptr, ...) @H5E_printf_stack(ptr noundef @.str, ptr noundef @__func__.H5ES__event_new, i32 noundef 98, i64 noundef %52, i64 noundef %53, ptr noundef @.str.2)
  br label %55

55:                                               ; preds = %51
  br label %56

56:                                               ; preds = %55
  store i8 1, ptr %8, align 1, !tbaa !13
  %57 = load i8, ptr %8, align 1, !tbaa !13, !range !15, !noundef !16
  %58 = trunc i8 %57 to i1
  %59 = zext i1 %58 to i8
  store i8 %59, ptr %8, align 1, !tbaa !13
  br label %60

60:                                               ; preds = %56
  br label %61

61:                                               ; preds = %60
  br label %62

62:                                               ; preds = %61
  store ptr null, ptr %7, align 8, !tbaa !9
  br label %94

63:                                               ; No predecessors!
  br label %64

64:                                               ; preds = %63
  br label %65

65:                                               ; preds = %64
  br label %66

66:                                               ; preds = %65
  br label %67

67:                                               ; preds = %66, %23
  %68 = call noalias ptr @H5FL_reg_calloc(ptr noundef @H5_H5ES_event_t_reg_free_list)
  store ptr %68, ptr %5, align 8, !tbaa !9
  %69 = icmp eq ptr null, %68
  br i1 %69, label %70, label %89

70:                                               ; preds = %67
  br label %71

71:                                               ; preds = %70
  br label %72

72:                                               ; preds = %71
  br label %73

73:                                               ; preds = %72
  %74 = load i64, ptr @H5E_EVENTSET_g, align 8, !tbaa !17
  %75 = load i64, ptr @H5E_CANTALLOC_g, align 8, !tbaa !17
  %76 = call i32 (ptr, ptr, i32, i64, i64, ptr, ...) @H5E_printf_stack(ptr noundef @.str, ptr noundef @__func__.H5ES__event_new, i32 noundef 103, i64 noundef %74, i64 noundef %75, ptr noundef @.str.3)
  br label %77

77:                                               ; preds = %73
  br label %78

78:                                               ; preds = %77
  store i8 1, ptr %8, align 1, !tbaa !13
  %79 = load i8, ptr %8, align 1, !tbaa !13, !range !15, !noundef !16
  %80 = trunc i8 %79 to i1
  %81 = zext i1 %80 to i8
  store i8 %81, ptr %8, align 1, !tbaa !13
  br label %82

82:                                               ; preds = %78
  br label %83

83:                                               ; preds = %82
  br label %84

84:                                               ; preds = %83
  store ptr null, ptr %7, align 8, !tbaa !9
  br label %94

85:                                               ; No predecessors!
  br label %86

86:                                               ; preds = %85
  br label %87

87:                                               ; preds = %86
  br label %88

88:                                               ; preds = %87
  br label %89

89:                                               ; preds = %88, %67
  %90 = load ptr, ptr %6, align 8, !tbaa !11
  %91 = load ptr, ptr %5, align 8, !tbaa !9
  %92 = getelementptr inbounds nuw %struct.H5ES_event_t, ptr %91, i32 0, i32 0
  store ptr %90, ptr %92, align 8, !tbaa !19
  %93 = load ptr, ptr %5, align 8, !tbaa !9
  store ptr %93, ptr %7, align 8, !tbaa !9
  br label %94

94:                                               ; preds = %89, %84, %62
  br label %95

95:                                               ; preds = %94, %15
  %96 = load ptr, ptr %7, align 8, !tbaa !9
  call void @llvm.lifetime.end.p0(i64 1, ptr %8) #4
  call void @llvm.lifetime.end.p0(i64 8, ptr %7) #4
  call void @llvm.lifetime.end.p0(i64 8, ptr %6) #4
  call void @llvm.lifetime.end.p0(i64 8, ptr %5) #4
  ret ptr %96
}