; Function Attrs: nounwind uwtable
define noalias ptr @H5ES__event_new(ptr noundef %0, ptr noundef %1) local_unnamed_addr #0 {
  %3 = load i8, ptr @H5ES_init_g, align 1, !tbaa !3, !range !7, !noundef !8
  %4 = trunc nuw i8 %3 to i1
  %5 = load i8, ptr @H5_libterm_g, align 1, !range !7
  %6 = trunc nuw i8 %5 to i1
  %7 = xor i1 %6, true
  %8 = select i1 %4, i1 true, i1 %7
  br i1 %8, label %9, label %31, !prof !9

9:                                                ; preds = %2
  %10 = tail call ptr @H5VL_create_object(ptr noundef %1, ptr noundef %0) #3
  %11 = icmp eq ptr %10, null
  br i1 %11, label %12, label %23

12:                                               ; preds = %9
  %13 = tail call i32 @H5VL_request_free(ptr noundef %1) #3
  %14 = icmp slt i32 %13, 0
  br i1 %14, label %15, label %19

15:                                               ; preds = %12
  %16 = load i64, ptr @H5E_EVENTSET_g, align 8, !tbaa !10
  %17 = load i64, ptr @H5E_CANTFREE_g, align 8, !tbaa !10
  %18 = tail call i32 (ptr, ptr, i32, i64, i64, ptr, ...) @H5E_printf_stack(ptr noundef nonnull @.str, ptr noundef nonnull @__func__.H5ES__event_new, i32 noundef 97, i64 noundef %16, i64 noundef %17, ptr noundef nonnull @.str.1) #3
  br label %19

19:                                               ; preds = %12, %15
  %20 = load i64, ptr @H5E_EVENTSET_g, align 8, !tbaa !10
  %21 = load i64, ptr @H5E_CANTINIT_g, align 8, !tbaa !10
  %22 = tail call i32 (ptr, ptr, i32, i64, i64, ptr, ...) @H5E_printf_stack(ptr noundef nonnull @.str, ptr noundef nonnull @__func__.H5ES__event_new, i32 noundef 98, i64 noundef %20, i64 noundef %21, ptr noundef nonnull @.str.2) #3
  br label %31

23:                                               ; preds = %9
  %24 = tail call noalias ptr @H5FL_reg_calloc(ptr noundef nonnull @H5_H5ES_event_t_reg_free_list) #3
  %25 = icmp eq ptr %24, null
  br i1 %25, label %26, label %30

26:                                               ; preds = %23
  %27 = load i64, ptr @H5E_EVENTSET_g, align 8, !tbaa !10
  %28 = load i64, ptr @H5E_CANTALLOC_g, align 8, !tbaa !10
  %29 = tail call i32 (ptr, ptr, i32, i64, i64, ptr, ...) @H5E_printf_stack(ptr noundef nonnull @.str, ptr noundef nonnull @__func__.H5ES__event_new, i32 noundef 103, i64 noundef %27, i64 noundef %28, ptr noundef nonnull @.str.3) #3
  br label %31

30:                                               ; preds = %23
  store ptr %10, ptr %24, align 8, !tbaa !12
  br label %31

31:                                               ; preds = %19, %26, %30, %2
  %.0 = phi ptr [ null, %19 ], [ null, %26 ], [ %24, %30 ], [ null, %2 ]
  ret ptr %.0
}